target datalayout = "e-m:e-p270:32:32-p271:32:32-p272:64:64-i64:64-i128:128-f80:128-n8:16:32:64-S128"
target triple = "x86_64-pc-linux-gnu"

%struct.VduseVirtq = type { %struct.VduseRing, i16, i16, i16, i16, i8, i32, i32, i8, i32, ptr, ptr, i16, i64, ptr }
%struct.VduseRing = type { i32, i64, i64, i64, ptr, ptr, ptr }
%struct.VduseDev = type { ptr, [256 x %struct.VduseIovaRegion], i32, ptr, i32, i32, i16, i16, i64, ptr, i32, i32, ptr, ptr }
%struct.VduseIovaRegion = type { i64, i64, i64, i64 }
%struct.VduseVirtqLog = type { %struct.VduseVirtqLogInflight }
%struct.VduseVirtqLogInflight = type { i64, i16, i16, i16, i16, [0 x %struct.VduseDescStateSplit] }
%struct.VduseDescStateSplit = type { i8, [5 x i8], i16, i64 }

@stderr = external global ptr, align 8
@.str.5 = private unnamed_addr constant [25 x i8] c"Failed to get vduse log\0A\00", align 1

; Function Attrs: nounwind uwtable
define internal ptr @vduse_log_get(ptr noundef %0, i64 noundef %1) #0 {
  %3 = alloca ptr, align 8
  %4 = alloca ptr, align 8
  %5 = alloca i64, align 8
  %6 = alloca ptr, align 8
  %7 = alloca i32, align 4
  %8 = alloca i32, align 4
  store ptr %0, ptr %4, align 8
  store i64 %1, ptr %5, align 8
  call void @llvm.lifetime.start.p0(i64 8, ptr %6) #13
  store ptr inttoptr (i64 -1 to ptr), ptr %6, align 8
  call void @llvm.lifetime.start.p0(i64 4, ptr %7) #13
  store i32 0, ptr %7, align 4, !annotation !4
  %9 = load ptr, ptr %4, align 8
  %10 = call i32 (ptr, i32, ...) @open64(ptr noundef %9, i32 noundef 66, i32 noundef 384)
  store i32 %10, ptr %7, align 4
  %11 = load i32, ptr %7, align 4
  %12 = icmp eq i32 %11, -1
  br i1 %12, label %13, label %14

13:                                               ; preds = %2
  store ptr inttoptr (i64 -1 to ptr), ptr %3, align 8
  store i32 1, ptr %8, align 4
  br label %28

14:                                               ; preds = %2
  %15 = load i32, ptr %7, align 4
  %16 = load i64, ptr %5, align 8
  %17 = call i32 @ftruncate64(i32 noundef %15, i64 noundef %16) #13
  %18 = icmp eq i32 %17, -1
  br i1 %18, label %19, label %20

19:                                               ; preds = %14
  br label %24

20:                                               ; preds = %14
  %21 = load i64, ptr %5, align 8
  %22 = load i32, ptr %7, align 4
  %23 = call ptr @mmap64(ptr noundef null, i64 noundef %21, i32 noundef 3, i32 noundef 1, i32 noundef %22, i64 noundef 0) #13
  store ptr %23, ptr %6, align 8
  br label %24

24:                                               ; preds = %20, %19
  %25 = load i32, ptr %7, align 4
  %26 = call i32 @close(i32 noundef %25)
  %27 = load ptr, ptr %6, align 8
  store ptr %27, ptr %3, align 8
  store i32 1, ptr %8, align 4
  br label %28

28:                                               ; preds = %24, %13
  call void @llvm.lifetime.end.p0(i64 4, ptr %7) #13
  call void @llvm.lifetime.end.p0(i64 8, ptr %6) #13
  %29 = load ptr, ptr %3, align 8
  ret ptr %29
}

; Function Attrs: inlinehint nounwind uwtable
define internal i64 @vduse_vq_log_size(i16 noundef zeroext %0) #5 {
  %2 = alloca i16, align 2
  store i16 %0, ptr %2, align 2
  %3 = load i16, ptr %2, align 2
  %4 = zext i16 %3 to i64
  %5 = mul i64 16, %4
  %6 = add i64 %5, 16
  %7 = add i64 %6, 64
  %8 = sub i64 %7, 1
  %9 = udiv i64 %8, 64
  %10 = mul i64 %9, 64
  ret i64 %10
}

; Function Attrs: nounwind uwtable
define dso_local i32 @vduse_set_reconnect_log_file(ptr noundef %0, ptr noundef %1) #0 {
  %3 = alloca i32, align 4
  %4 = alloca ptr, align 8
  %5 = alloca ptr, align 8
  %6 = alloca i64, align 8
  %7 = alloca ptr, align 8
  %8 = alloca i32, align 4
  %9 = alloca i32, align 4
  store ptr %0, ptr %4, align 8
  store ptr %1, ptr %5, align 8
  call void @llvm.lifetime.start.p0(i64 8, ptr %6) #13
  %10 = load ptr, ptr %4, align 8
  %11 = getelementptr inbounds nuw %struct.VduseDev, ptr %10, i32 0, i32 6
  %12 = load i16, ptr %11, align 8
  %13 = zext i16 %12 to i64
  %14 = call i64 @vduse_vq_log_size(i16 noundef zeroext 1024)
  %15 = mul i64 %13, %14
  store i64 %15, ptr %6, align 8
  call void @llvm.lifetime.start.p0(i64 8, ptr %7) #13
  store ptr null, ptr %7, align 8, !annotation !4
  call void @llvm.lifetime.start.p0(i64 4, ptr %8) #13
  store i32 0, ptr %8, align 4, !annotation !4
  %16 = load ptr, ptr %5, align 8
  %17 = load i64, ptr %6, align 8
  %18 = call ptr @vduse_log_get(ptr noundef %16, i64 noundef %17)
  store ptr %18, ptr %7, align 8
  %19 = load ptr, ptr %4, align 8
  %20 = getelementptr inbounds nuw %struct.VduseDev, ptr %19, i32 0, i32 13
  store ptr %18, ptr %20, align 8
  %21 = load ptr, ptr %7, align 8
  %22 = icmp eq ptr %21, inttoptr (i64 -1 to ptr)
  br i1 %22, label %23, label %26

23:                                               ; preds = %2
  %24 = load ptr, ptr @stderr, align 8
  %25 = call i32 (ptr, ptr, ...) @fprintf(ptr noundef %24, ptr noundef @.str.5) #13
  store i32 -22, ptr %3, align 4
  store i32 1, ptr %9, align 4
  br label %60

26:                                               ; preds = %2
  store i32 0, ptr %8, align 4
  br label %27

27:                                               ; preds = %56, %26
  %28 = load i32, ptr %8, align 4
  %29 = load ptr, ptr %4, align 8
  %30 = getelementptr inbounds nuw %struct.VduseDev, ptr %29, i32 0, i32 6
  %31 = load i16, ptr %30, align 8
  %32 = zext i16 %31 to i32
  %33 = icmp slt i32 %28, %32
  br i1 %33, label %34, label %59

34:                                               ; preds = %27
  %35 = load ptr, ptr %7, align 8
  %36 = load ptr, ptr %4, align 8
  %37 = getelementptr inbounds nuw %struct.VduseDev, ptr %36, i32 0, i32 0
  %38 = load ptr, ptr %37, align 8
  %39 = load i32, ptr %8, align 4
  %40 = sext i32 %39 to i64
  %41 = getelementptr inbounds %struct.VduseVirtq, ptr %38, i64 %40
  %42 = getelementptr inbounds nuw %struct.VduseVirtq, ptr %41, i32 0, i32 14
  store ptr %35, ptr %42, align 8
  %43 = load ptr, ptr %4, align 8
  %44 = getelementptr inbounds nuw %struct.VduseDev, ptr %43, i32 0, i32 0
  %45 = load ptr, ptr %44, align 8
  %46 = load i32, ptr %8, align 4
  %47 = sext i32 %46 to i64
  %48 = getelementptr inbounds %struct.VduseVirtq, ptr %45, i64 %47
  %49 = getelementptr inbounds nuw %struct.VduseVirtq, ptr %48, i32 0, i32 14
  %50 = load ptr, ptr %49, align 8
  %51 = getelementptr inbounds nuw %struct.VduseVirtqLog, ptr %50, i32 0, i32 0
  %52 = getelementptr inbounds nuw %struct.VduseVirtqLogInflight, ptr %51, i32 0, i32 2
  store i16 1024, ptr %52, align 2
  %53 = load ptr, ptr %7, align 8
  %54 = call i64 @vduse_vq_log_size(i16 noundef zeroext 1024)
  %55 = getelementptr inbounds nuw i8, ptr %53, i64 %54
  store ptr %55, ptr %7, align 8
  br label %56

56:                                               ; preds = %34
  %57 = load i32, ptr %8, align 4
  %58 = add i32 %57, 1
  store i32 %58, ptr %8, align 4
  br label %27

59:                                               ; preds = %27
  store i32 0, ptr %3, align 4
  store i32 1, ptr %9, align 4
  br label %60

60:                                               ; preds = %59, %23
  call void @llvm.lifetime.end.p0(i64 4, ptr %8) #13
  call void @llvm.lifetime.end.p0(i64 8, ptr %7) #13
  call void @llvm.lifetime.end.p0(i64 8, ptr %6) #13
  %61 = load i32, ptr %3, align 4
  ret i32 %61
}