; Function Attrs: nounwind uwtable
define dso_local range(i32 -22, 1) i32 @vduse_set_reconnect_log_file(ptr noundef captures(none) initializes((8264, 8272)) %0, ptr noundef readonly captures(none) %1) local_unnamed_addr #2 {
  %3 = getelementptr inbounds nuw i8, ptr %0, i64 8224
  %4 = load i16, ptr %3, align 8
  %5 = zext i16 %4 to i64
  %6 = mul nuw nsw i64 %5, 16448
  %7 = tail call i32 (ptr, i32, ...) @open64(ptr noundef readonly %1, i32 noundef 66, i32 noundef 384) #20
  %8 = icmp eq i32 %7, -1
  br i1 %8, label %.sink.split, label %9

9:                                                ; preds = %2
  %10 = tail call i32 @ftruncate64(i32 noundef %7, i64 noundef range(i64 0, 1077919681) %6) #20
  %11 = icmp eq i32 %10, -1
  br i1 %11, label %vduse_log_get.exit.thread18, label %vduse_log_get.exit

vduse_log_get.exit.thread18:                      ; preds = %9
  %12 = tail call i32 @close(i32 noundef %7) #20
  br label %.sink.split

vduse_log_get.exit:                               ; preds = %9
  %13 = tail call ptr @mmap64(ptr noundef null, i64 noundef range(i64 0, 1077919681) %6, i32 noundef 3, i32 noundef 1, i32 noundef %7, i64 noundef 0) #20
  %14 = tail call i32 @close(i32 noundef %7) #20
  %15 = getelementptr inbounds nuw i8, ptr %0, i64 8264
  store ptr %13, ptr %15, align 8
  %16 = icmp eq ptr %13, inttoptr (i64 -1 to ptr)
  br i1 %16, label %19, label %.preheader

.preheader:                                       ; preds = %vduse_log_get.exit
  %17 = load i16, ptr %3, align 8
  %.not = icmp eq i16 %17, 0
  br i1 %.not, label %.loopexit, label %.lr.ph

.sink.split:                                      ; preds = %2, %vduse_log_get.exit.thread18
  %18 = getelementptr inbounds nuw i8, ptr %0, i64 8264
  store ptr inttoptr (i64 -1 to ptr), ptr %18, align 8
  br label %19

19:                                               ; preds = %.sink.split, %vduse_log_get.exit
  %20 = load ptr, ptr @stderr, align 8
  %21 = tail call i64 @fwrite(ptr nonnull @.str.5, i64 24, i64 1, ptr %20) #23
  br label %.loopexit

.lr.ph:                                           ; preds = %.preheader, %.lr.ph
  %indvars.iv = phi i64 [ %indvars.iv.next, %.lr.ph ], [ 0, %.preheader ]
  %.01420 = phi ptr [ %28, %.lr.ph ], [ %13, %.preheader ]
  %22 = load ptr, ptr %0, align 8
  %23 = getelementptr inbounds nuw %struct.VduseVirtq, ptr %22, i64 %indvars.iv, i32 14
  store ptr %.01420, ptr %23, align 8
  %24 = load ptr, ptr %0, align 8
  %25 = getelementptr inbounds nuw %struct.VduseVirtq, ptr %24, i64 %indvars.iv, i32 14
  %26 = load ptr, ptr %25, align 8
  %27 = getelementptr inbounds nuw i8, ptr %26, i64 10
  store i16 1024, ptr %27, align 2
  %28 = getelementptr inbounds nuw i8, ptr %.01420, i64 16448
  %indvars.iv.next = add nuw nsw i64 %indvars.iv, 1
  %29 = load i16, ptr %3, align 8
  %30 = zext i16 %29 to i64
  %31 = icmp samesign ult i64 %indvars.iv.next, %30
  br i1 %31, label %.lr.ph, label %.loopexit

.loopexit:                                        ; preds = %.lr.ph, %.preheader, %19
  %.015 = phi i32 [ -22, %19 ], [ 0, %.preheader ], [ 0, %.lr.ph ]
  ret i32 %.015
}